; Function Attrs: mustprogress uwtable
define noundef nonnull align 8 dereferenceable(8) ptr @_ZlsRSoRK11colvarvalue(ptr noundef nonnull returned align 8 dereferenceable(8) %0, ptr noundef nonnull align 8 dereferenceable(168) %1) local_unnamed_addr #1 {
  %3 = load i32, ptr %1, align 8, !tbaa !4
  switch i32 %3, label %17 [
    i32 1, label %4
    i32 2, label %8
    i32 3, label %8
    i32 4, label %8
    i32 5, label %11
    i32 6, label %11
    i32 7, label %14
  ]

4:                                                ; preds = %2
  %5 = getelementptr inbounds nuw i8, ptr %1, i64 8
  %6 = load double, ptr %5, align 8, !tbaa !39
  %7 = tail call noundef nonnull align 8 dereferenceable(8) ptr @_ZNSo9_M_insertIdEERSoT_(ptr noundef nonnull align 8 dereferenceable(8) %0, double noundef %6)
  br label %_ZNK11colvarvalue25write_to_stream_template_ISoEEvRT_.exit

8:                                                ; preds = %2, %2, %2
  %9 = getelementptr inbounds nuw i8, ptr %1, i64 16
  %10 = tail call noundef nonnull align 8 dereferenceable(8) ptr @_ZlsRSoRKN12colvarmodule7rvectorE(ptr noundef nonnull align 8 dereferenceable(8) %0, ptr noundef nonnull align 8 dereferenceable(24) %9)
  br label %_ZNK11colvarvalue25write_to_stream_template_ISoEEvRT_.exit

11:                                               ; preds = %2, %2
  %12 = getelementptr inbounds nuw i8, ptr %1, i64 40
  %13 = tail call noundef nonnull align 8 dereferenceable(8) ptr @_ZlsRSoRKN12colvarmodule10quaternionE(ptr noundef nonnull align 8 dereferenceable(8) %0, ptr noundef nonnull align 8 dereferenceable(32) %12)
  br label %_ZNK11colvarvalue25write_to_stream_template_ISoEEvRT_.exit

14:                                               ; preds = %2
  %15 = getelementptr inbounds nuw i8, ptr %1, i64 72
  %16 = tail call noundef nonnull align 8 dereferenceable(8) ptr @_ZlsRSoRKN12colvarmodule8vector1dIdEE(ptr noundef nonnull align 8 dereferenceable(8) %0, ptr noundef nonnull align 8 dereferenceable(24) %15)
  br label %_ZNK11colvarvalue25write_to_stream_template_ISoEEvRT_.exit

17:                                               ; preds = %2
  %18 = tail call noundef nonnull align 8 dereferenceable(8) ptr @_ZSt16__ostream_insertIcSt11char_traitsIcEERSt13basic_ostreamIT_T0_ES6_PKS3_l(ptr noundef nonnull align 8 dereferenceable(8) %0, ptr noundef nonnull @.str.15, i64 noundef 7)
  br label %_ZNK11colvarvalue25write_to_stream_template_ISoEEvRT_.exit

_ZNK11colvarvalue25write_to_stream_template_ISoEEvRT_.exit: ; preds = %4, %8, %11, %14, %17
  ret ptr %0
}